; ModuleID = '37/905.c'
source_filename = "37/905.c"
target datalayout = "e-m:e-p270:32:32-p271:32:32-p272:64:64-i64:64-f80:128-n8:16:32:64-S128"
target triple = "x86_64-pc-linux-gnu"

@.str = private unnamed_addr constant [3 x i8] c"%d\00", align 1
@.str.1 = private unnamed_addr constant [3 x i8] c"%s\00", align 1
@.str.2 = private unnamed_addr constant [4 x i8] c"%c\0A\00", align 1
@.str.3 = private unnamed_addr constant [4 x i8] c"no\0A\00", align 1

; Function Attrs: noinline nounwind uwtable
define dso_local i32 @main() #0 {
  %1 = alloca i32, align 4
  %2 = alloca [100 x [10000 x i8]], align 16
  %3 = alloca [100 x i8*], align 16
  %4 = alloca i32, align 4
  %5 = alloca i32, align 4
  %6 = alloca i32, align 4
  %7 = alloca i32, align 4
  %8 = alloca i32, align 4
  %9 = alloca i32, align 4
  %10 = alloca [26 x i32], align 16
  %11 = alloca i32*, align 8
  store i32 0, i32* %1, align 4
  %12 = getelementptr inbounds [26 x i32], [26 x i32]* %10, i64 0, i64 0
  store i32* %12, i32** %11, align 8
  %13 = call i32 (i8*, ...) @__isoc99_scanf(i8* getelementptr inbounds ([3 x i8], [3 x i8]* @.str, i64 0, i64 0), i32* %4)
  store i32 0, i32* %5, align 4
  br label %14

14:                                               ; preds = %31, %0
  %15 = load i32, i32* %5, align 4
  %16 = load i32, i32* %4, align 4
  %17 = icmp slt i32 %15, %16
  br i1 %17, label %18, label %34

18:                                               ; preds = %14
  %19 = load i32, i32* %5, align 4
  %20 = sext i32 %19 to i64
  %21 = getelementptr inbounds [100 x [10000 x i8]], [100 x [10000 x i8]]* %2, i64 0, i64 %20
  %22 = getelementptr inbounds [10000 x i8], [10000 x i8]* %21, i64 0, i64 0
  %23 = load i32, i32* %5, align 4
  %24 = sext i32 %23 to i64
  %25 = getelementptr inbounds [100 x i8*], [100 x i8*]* %3, i64 0, i64 %24
  store i8* %22, i8** %25, align 8
  %26 = load i32, i32* %5, align 4
  %27 = sext i32 %26 to i64
  %28 = getelementptr inbounds [100 x i8*], [100 x i8*]* %3, i64 0, i64 %27
  %29 = load i8*, i8** %28, align 8
  %30 = call i32 (i8*, ...) @__isoc99_scanf(i8* getelementptr inbounds ([3 x i8], [3 x i8]* @.str.1, i64 0, i64 0), i8* %29)
  br label %31

31:                                               ; preds = %18
  %32 = load i32, i32* %5, align 4
  %33 = add nsw i32 %32, 1
  store i32 %33, i32* %5, align 4
  br label %14

34:                                               ; preds = %14
  store i32 0, i32* %5, align 4
  br label %35

35:                                               ; preds = %124, %34
  %36 = load i32, i32* %5, align 4
  %37 = load i32, i32* %4, align 4
  %38 = icmp slt i32 %36, %37
  br i1 %38, label %39, label %127

39:                                               ; preds = %35
  store i32 0, i32* %7, align 4
  store i32 0, i32* %6, align 4
  br label %40

40:                                               ; preds = %48, %39
  %41 = load i32, i32* %6, align 4
  %42 = icmp slt i32 %41, 26
  br i1 %42, label %43, label %51

43:                                               ; preds = %40
  %44 = load i32*, i32** %11, align 8
  %45 = load i32, i32* %6, align 4
  %46 = sext i32 %45 to i64
  %47 = getelementptr inbounds i32, i32* %44, i64 %46
  store i32 0, i32* %47, align 4
  br label %48

48:                                               ; preds = %43
  %49 = load i32, i32* %6, align 4
  %50 = add nsw i32 %49, 1
  store i32 %50, i32* %6, align 4
  br label %40

51:                                               ; preds = %40
  %52 = load i32, i32* %5, align 4
  %53 = sext i32 %52 to i64
  %54 = getelementptr inbounds [100 x i8*], [100 x i8*]* %3, i64 0, i64 %53
  %55 = load i8*, i8** %54, align 8
  %56 = call i64 @strlen(i8* %55) #3
  %57 = trunc i64 %56 to i32
  store i32 %57, i32* %8, align 4
  store i32 0, i32* %6, align 4
  br label %58

58:                                               ; preds = %79, %51
  %59 = load i32, i32* %6, align 4
  %60 = load i32, i32* %8, align 4
  %61 = icmp slt i32 %59, %60
  br i1 %61, label %62, label %82

62:                                               ; preds = %58
  %63 = load i32, i32* %5, align 4
  %64 = sext i32 %63 to i64
  %65 = getelementptr inbounds [100 x i8*], [100 x i8*]* %3, i64 0, i64 %64
  %66 = load i8*, i8** %65, align 8
  %67 = load i32, i32* %6, align 4
  %68 = sext i32 %67 to i64
  %69 = getelementptr inbounds i8, i8* %66, i64 %68
  %70 = load i8, i8* %69, align 1
  %71 = sext i8 %70 to i32
  %72 = sub nsw i32 %71, 97
  store i32 %72, i32* %9, align 4
  %73 = load i32*, i32** %11, align 8
  %74 = load i32, i32* %9, align 4
  %75 = sext i32 %74 to i64
  %76 = getelementptr inbounds i32, i32* %73, i64 %75
  %77 = load i32, i32* %76, align 4
  %78 = add nsw i32 %77, 1
  store i32 %78, i32* %76, align 4
  br label %79

79:                                               ; preds = %62
  %80 = load i32, i32* %6, align 4
  %81 = add nsw i32 %80, 1
  store i32 %81, i32* %6, align 4
  br label %58

82:                                               ; preds = %58
  store i32 0, i32* %6, align 4
  br label %83

83:                                               ; preds = %115, %82
  %84 = load i32, i32* %6, align 4
  %85 = load i32, i32* %8, align 4
  %86 = icmp slt i32 %84, %85
  br i1 %86, label %87, label %118

87:                                               ; preds = %83
  %88 = load i32, i32* %5, align 4
  %89 = sext i32 %88 to i64
  %90 = getelementptr inbounds [100 x i8*], [100 x i8*]* %3, i64 0, i64 %89
  %91 = load i8*, i8** %90, align 8
  %92 = load i32, i32* %6, align 4
  %93 = sext i32 %92 to i64
  %94 = getelementptr inbounds i8, i8* %91, i64 %93
  %95 = load i8, i8* %94, align 1
  %96 = sext i8 %95 to i32
  %97 = sub nsw i32 %96, 97
  store i32 %97, i32* %9, align 4
  %98 = load i32, i32* %9, align 4
  %99 = sext i32 %98 to i64
  %100 = getelementptr inbounds [26 x i32], [26 x i32]* %10, i64 0, i64 %99
  %101 = load i32, i32* %100, align 4
  %102 = icmp eq i32 %101, 1
  br i1 %102, label %103, label %114

103:                                              ; preds = %87
  %104 = load i32, i32* %5, align 4
  %105 = sext i32 %104 to i64
  %106 = getelementptr inbounds [100 x i8*], [100 x i8*]* %3, i64 0, i64 %105
  %107 = load i8*, i8** %106, align 8
  %108 = load i32, i32* %6, align 4
  %109 = sext i32 %108 to i64
  %110 = getelementptr inbounds i8, i8* %107, i64 %109
  %111 = load i8, i8* %110, align 1
  %112 = sext i8 %111 to i32
  %113 = call i32 (i8*, ...) @printf(i8* getelementptr inbounds ([4 x i8], [4 x i8]* @.str.2, i64 0, i64 0), i32 %112)
  store i32 1, i32* %7, align 4
  br label %118

114:                                              ; preds = %87
  br label %115

115:                                              ; preds = %114
  %116 = load i32, i32* %6, align 4
  %117 = add nsw i32 %116, 1
  store i32 %117, i32* %6, align 4
  br label %83

118:                                              ; preds = %103, %83
  %119 = load i32, i32* %7, align 4
  %120 = icmp eq i32 %119, 0
  br i1 %120, label %121, label %123

121:                                              ; preds = %118
  %122 = call i32 (i8*, ...) @printf(i8* getelementptr inbounds ([4 x i8], [4 x i8]* @.str.3, i64 0, i64 0))
  br label %123

123:                                              ; preds = %121, %118
  br label %124

124:                                              ; preds = %123
  %125 = load i32, i32* %5, align 4
  %126 = add nsw i32 %125, 1
  store i32 %126, i32* %5, align 4
  br label %35

127:                                              ; preds = %35
  ret i32 0
}

declare dso_local i32 @__isoc99_scanf(i8*, ...) #1

; Function Attrs: nounwind readonly
declare dso_local i64 @strlen(i8*) #2

declare dso_local i32 @printf(i8*, ...) #1


!llvm.module.flags = !{!0}
!llvm.ident = !{!1}

!0 = !{i32 1, !"wchar_size", i32 4}
!1 = !{!"clang version 10.0.0-4ubuntu1 "}
